target datalayout = "e-m:e-p270:32:32-p271:32:32-p272:64:64-i64:64-i128:128-f80:128-n8:16:32:64-S128"
target triple = "x86_64-pc-linux-gnu"

%struct.hostset = type { ptr }

@.str.7 = private unnamed_addr constant [11 x i8] c"hostlist.c\00", align 1
@__func__.hostset_create = private unnamed_addr constant [15 x i8] c"hostset_create\00", align 1

; Function Attrs: nounwind uwtable
define dso_local ptr @hostlist_create(ptr noundef %0) #0 {
  %2 = alloca ptr, align 8
  %3 = alloca i32, align 4
  store ptr %0, ptr %2, align 8
  call void @llvm.lifetime.start.p0(i64 4, ptr %3) #13
  %4 = call zeroext i16 @slurmdb_setup_cluster_dims()
  %5 = zext i16 %4 to i32
  store i32 %5, ptr %3, align 4
  %6 = load ptr, ptr %2, align 8
  %7 = load i32, ptr %3, align 4
  %8 = call ptr @hostlist_create_dims(ptr noundef %6, i32 noundef %7)
  call void @llvm.lifetime.end.p0(i64 4, ptr %3) #13
  ret ptr %8
}

; Function Attrs: nounwind uwtable
define dso_local ptr @hostset_create(ptr noundef %0) #0 {
  %2 = alloca ptr, align 8
  %3 = alloca ptr, align 8
  %4 = alloca ptr, align 8
  %5 = alloca i32, align 4
  store ptr %0, ptr %3, align 8
  call void @llvm.lifetime.start.p0(i64 8, ptr %4) #13
  %6 = call ptr @slurm_xcalloc(i64 noundef 1, i64 noundef 8, i1 noundef zeroext true, i1 noundef zeroext false, ptr noundef @.str.7, i32 noundef 3169, ptr noundef @__func__.hostset_create)
  store ptr %6, ptr %4, align 8
  %7 = load ptr, ptr %3, align 8
  %8 = call ptr @hostlist_create(ptr noundef %7)
  %9 = load ptr, ptr %4, align 8
  %10 = getelementptr inbounds nuw %struct.hostset, ptr %9, i32 0, i32 0
  store ptr %8, ptr %10, align 8
  %11 = icmp ne ptr %8, null
  br i1 %11, label %13, label %12

12:                                               ; preds = %1
  call void @slurm_xfree(ptr noundef %4)
  store ptr null, ptr %2, align 8
  store i32 1, ptr %5, align 4
  br label %18

13:                                               ; preds = %1
  %14 = load ptr, ptr %4, align 8
  %15 = getelementptr inbounds nuw %struct.hostset, ptr %14, i32 0, i32 0
  %16 = load ptr, ptr %15, align 8
  call void @hostlist_uniq(ptr noundef %16)
  %17 = load ptr, ptr %4, align 8
  store ptr %17, ptr %2, align 8
  store i32 1, ptr %5, align 4
  br label %18

18:                                               ; preds = %13, %12
  call void @llvm.lifetime.end.p0(i64 8, ptr %4) #13
  %19 = load ptr, ptr %2, align 8
  ret ptr %19
}