; Function Attrs: nounwind uwtable
define dso_local ptr @hostset_create(ptr noundef captures(address_is_null) %0) #0 {
  %2 = alloca ptr, align 8
  call void @llvm.lifetime.start.p0(i64 8, ptr nonnull %2) #22
  %3 = tail call ptr @slurm_xcalloc(i64 noundef 1, i64 noundef 8, i1 noundef zeroext true, i1 noundef zeroext false, ptr noundef nonnull @.str.7, i32 noundef 3169, ptr noundef nonnull @__func__.hostset_create) #22
  store ptr %3, ptr %2, align 8
  %4 = tail call zeroext i16 @slurmdb_setup_cluster_dims() #22
  %5 = zext i16 %4 to i32
  %6 = tail call noundef ptr @hostlist_create_dims(ptr noundef %0, i32 noundef %5)
  store ptr %6, ptr %3, align 8
  %.not = icmp eq ptr %6, null
  br i1 %.not, label %7, label %8

7:                                                ; preds = %1
  call void @slurm_xfree(ptr noundef nonnull %2) #22
  br label %9

8:                                                ; preds = %1
  tail call void @hostlist_uniq(ptr noundef nonnull %6)
  br label %9

9:                                                ; preds = %8, %7
  %.0 = phi ptr [ %3, %8 ], [ null, %7 ]
  call void @llvm.lifetime.end.p0(i64 8, ptr nonnull %2) #22
  ret ptr %.0
}